target datalayout = "e-m:e-p270:32:32-p271:32:32-p272:64:64-i64:64-i128:128-f80:128-n8:16:32:64-S128"
target triple = "x86_64-pc-linux-gnu"

%struct.yyguts_t = type { ptr, ptr, ptr, i64, i64, ptr, i8, i32, i32, ptr, i32, i32, i32, i32, i32, ptr, ptr, ptr, i32, i32, ptr, i32, i32, ptr, ptr }
%struct.core_yy_extra_type = type { ptr, i64, ptr, ptr, i32, i8, i8, ptr, i32, i32, i32, i32, ptr, i32, i32, i8, i8 }

@.str.7 = private unnamed_addr constant [7 x i8] c"scan.l\00", align 1
@.str.52 = private unnamed_addr constant [46 x i8] c"nonstandard use of escape in a string literal\00", align 1
@.str.53 = private unnamed_addr constant [57 x i8] c"Use the escape string syntax for escapes, e.g., E'\\r\\n'.\00", align 1
@__func__.check_escape_warning = private unnamed_addr constant [21 x i8] c"check_escape_warning\00", align 1

; Function Attrs: nounwind uwtable
define dso_local i32 @scanner_errposition(i32 noundef %0, ptr noundef %1) #0 {
  %3 = alloca i32, align 4
  %4 = alloca i32, align 4
  %5 = alloca ptr, align 8
  %6 = alloca i32, align 4
  %7 = alloca i32, align 4
  store i32 %0, ptr %4, align 4
  store ptr %1, ptr %5, align 8
  call void @llvm.lifetime.start.p0(i64 4, ptr %6) #13
  %8 = load i32, ptr %4, align 4
  %9 = icmp slt i32 %8, 0
  br i1 %9, label %10, label %11

10:                                               ; preds = %2
  store i32 0, ptr %3, align 4
  store i32 1, ptr %7, align 4
  br label %22

11:                                               ; preds = %2
  %12 = load ptr, ptr %5, align 8
  %13 = getelementptr inbounds nuw %struct.yyguts_t, ptr %12, i32 0, i32 0
  %14 = load ptr, ptr %13, align 8
  %15 = getelementptr inbounds nuw %struct.core_yy_extra_type, ptr %14, i32 0, i32 0
  %16 = load ptr, ptr %15, align 8
  %17 = load i32, ptr %4, align 4
  %18 = call i32 @pg_mbstrlen_with_len(ptr noundef %16, i32 noundef %17)
  %19 = add i32 %18, 1
  store i32 %19, ptr %6, align 4
  %20 = load i32, ptr %6, align 4
  %21 = call i32 @errposition(i32 noundef %20)
  store i32 %21, ptr %3, align 4
  store i32 1, ptr %7, align 4
  br label %22

22:                                               ; preds = %11, %10
  call void @llvm.lifetime.end.p0(i64 4, ptr %6) #13
  %23 = load i32, ptr %3, align 4
  ret i32 %23
}

; Function Attrs: nounwind uwtable
define internal void @check_escape_warning(ptr noundef %0) #0 {
  %2 = alloca ptr, align 8
  store ptr %0, ptr %2, align 8
  %3 = load ptr, ptr %2, align 8
  %4 = getelementptr inbounds nuw %struct.yyguts_t, ptr %3, i32 0, i32 0
  %5 = load ptr, ptr %4, align 8
  %6 = getelementptr inbounds nuw %struct.core_yy_extra_type, ptr %5, i32 0, i32 15
  %7 = load i8, ptr %6, align 8, !range !6, !noundef !7
  %8 = trunc i8 %7 to i1
  br i1 %8, label %9, label %34

9:                                                ; preds = %1
  %10 = load ptr, ptr %2, align 8
  %11 = getelementptr inbounds nuw %struct.yyguts_t, ptr %10, i32 0, i32 0
  %12 = load ptr, ptr %11, align 8
  %13 = getelementptr inbounds nuw %struct.core_yy_extra_type, ptr %12, i32 0, i32 5
  %14 = load i8, ptr %13, align 4, !range !6, !noundef !7
  %15 = trunc i8 %14 to i1
  br i1 %15, label %16, label %34

16:                                               ; preds = %9
  br label %17

17:                                               ; preds = %16
  br i1 false, label %18, label %20

18:                                               ; preds = %17
  %19 = call zeroext i1 @errstart_cold(i32 noundef 19, ptr noundef null) #15
  br i1 %19, label %22, label %32

20:                                               ; preds = %17
  %21 = call zeroext i1 @errstart(i32 noundef 19, ptr noundef null)
  br i1 %21, label %22, label %32

22:                                               ; preds = %20, %18
  %23 = call i32 @errcode(i32 noundef 100794498)
  %24 = call i32 (ptr, ...) @errmsg(ptr noundef @.str.52)
  %25 = call i32 (ptr, ...) @errhint(ptr noundef @.str.53)
  %26 = load ptr, ptr %2, align 8
  %27 = getelementptr inbounds nuw %struct.yyguts_t, ptr %26, i32 0, i32 24
  %28 = load ptr, ptr %27, align 8
  %29 = load i32, ptr %28, align 4
  %30 = load ptr, ptr %2, align 8
  %31 = call i32 @scanner_errposition(i32 noundef %29, ptr noundef %30)
  call void @errfinish(ptr noundef @.str.7, i32 noundef 1458, ptr noundef @__func__.check_escape_warning)
  br label %32

32:                                               ; preds = %22, %20, %18
  br label %33

33:                                               ; preds = %32
  br label %34

34:                                               ; preds = %33, %9, %1
  %35 = load ptr, ptr %2, align 8
  %36 = getelementptr inbounds nuw %struct.yyguts_t, ptr %35, i32 0, i32 0
  %37 = load ptr, ptr %36, align 8
  %38 = getelementptr inbounds nuw %struct.core_yy_extra_type, ptr %37, i32 0, i32 15
  store i8 0, ptr %38, align 8
  ret void
}