; Function Attrs: nounwind uwtable
define internal fastcc void @check_escape_warning(ptr noundef readonly captures(none) %0) unnamed_addr #0 {
  %2 = load ptr, ptr %0, align 8
  %3 = getelementptr inbounds nuw i8, ptr %2, i64 80
  %4 = load i8, ptr %3, align 8, !range !6, !noundef !7
  %5 = trunc nuw i8 %4 to i1
  br i1 %5, label %6, label %26

6:                                                ; preds = %1
  %7 = getelementptr inbounds nuw i8, ptr %2, i64 36
  %8 = load i8, ptr %7, align 4, !range !6, !noundef !7
  %9 = trunc nuw i8 %8 to i1
  br i1 %9, label %10, label %26

10:                                               ; preds = %6
  %11 = tail call zeroext i1 @errstart(i32 noundef 19, ptr noundef null) #22
  br i1 %11, label %12, label %26

12:                                               ; preds = %10
  %13 = tail call i32 @errcode(i32 noundef 100794498) #22
  %14 = tail call i32 (ptr, ...) @errmsg(ptr noundef nonnull @.str.52) #22
  %15 = tail call i32 (ptr, ...) @errhint(ptr noundef nonnull @.str.53) #22
  %16 = getelementptr inbounds nuw i8, ptr %0, i64 152
  %17 = load ptr, ptr %16, align 8
  %18 = load i32, ptr %17, align 4
  %19 = icmp slt i32 %18, 0
  br i1 %19, label %scanner_errposition.exit, label %20

20:                                               ; preds = %12
  %21 = load ptr, ptr %0, align 8
  %22 = load ptr, ptr %21, align 8
  %23 = tail call i32 @pg_mbstrlen_with_len(ptr noundef %22, i32 noundef %18) #22
  %24 = add i32 %23, 1
  %25 = tail call i32 @errposition(i32 noundef %24) #22
  br label %scanner_errposition.exit

scanner_errposition.exit:                         ; preds = %12, %20
  tail call void @errfinish(ptr noundef nonnull @.str.7, i32 noundef 1458, ptr noundef nonnull @__func__.check_escape_warning) #22
  br label %26

26:                                               ; preds = %scanner_errposition.exit, %10, %6, %1
  %27 = load ptr, ptr %0, align 8
  %28 = getelementptr inbounds nuw i8, ptr %27, i64 80
  store i8 0, ptr %28, align 8
  ret void
}